(dp0
I1
V\uc218\uc5c5 1/3\uc120\uc774 \uc9c0\ub098\uba74 \ud734\ud559\uc774 \ubd88\uac00\ub2a5\ud558\uace0, 1/3\uc120\uc744 \ucd08\uacfc\ud558\uc9c0\uc54a\uc558\uc744 \ub54c\uc5d0\ub294 \uc77c\ubc18\ud734\ud559\uc694\uccad\uc0ac\uc720\uc11c\ub97c \uc791\uc131\ud558\uc5ec \uc81c\ucd9c\ud558\uc2dc\uba74 \uac00\ub2a5\ud569\ub2c8\ub2e4.
p1
sI2
V\uc77c\ubc18\ud734\ud559\uc740 \uc885\ud569\uc815\ubcf4\uc2dc\uc2a4\ud15c\uc5d0\uc11c \uc2e0\uccad \ud558\uc2dc\uba74 \ub429\ub2c8\ub2e4. \uc2b9\uc778\uc774 \ub418\uc5c8\ub2e4\uba74 \ud734\ud559\ucc98\ub9ac \ub41c \uac83\uc785\ub2c8\ub2e4. \ud734\ud559 \uad00\ub828\ud558\uc5ec \ub2e4\ub978\ubb38\uc758\uc0ac\ud56d\uc774 \uc788\uc73c\uc2dc\uba74 \uc18c\uc18d\ub2e8\uacfc\ub300\ud559 \ud589\uc815\uc2e4\ub85c \ubb38\uc758\ubc14\ub78d\ub2c8\ub2e4.
p2
sI3
V\uc218\uc5c5 1/3\uc120\uc774 \uc9c0\ub098\uba74 \ud734\ud559\uc774 \ubd88\uac00\ub2a5\ud558\uace0, 1/3\uc120\uc744 \ucd08\uacfc\ud558\uc9c0\uc54a\uc558\uc744 \ub54c\uc5d0\ub294 \uc77c\ubc18\ud734\ud559\uc694\uccad\uc0ac\uc720\uc11c\ub97c \uc791\uc131\ud558\uc5ec \uc81c\ucd9c\ud558\uc2dc\uba74 \uac00\ub2a5\ud569\ub2c8\ub2e4.
p3
sI4
VB\ud559\uc810 \uc774\uc0c1\uc73c\ub85c \uc774\uc218\ud55c \uacfc\ubaa9\uc740 \uc7ac\uc218\uac15\uc774 \ubd88\uac00\ub2a5\ud569\ub2c8\ub2e4.
p4
sI5
V\ub300\uad6c\ub300\ud559\uad50 \ud648\ud398\uc774\uc9c0-\uc885\ud569\uc815\ubcf4\uc2dc\uc2a4\ud15c\ub85c\uadf8\uc778-\ud559\uc801/\uc878\uc5c5-\ud559\uc801\uad00\ub9ac-\uc131\uc801\uc870\ud68c \uc5d0\uc11c \uc5f4\ub78c \uac00\ub2a5\ud569\ub2c8\ub2e4
p5
s.