(dp0
I1
V\uc778\ud130\ub137\uc73c\ub85c \ubc1c\uae09\uac00\ub2a5\ud558\uc2dc\uace0, \uc601\ubb38\uc73c\ub85c \ubc1c\uae09\ud560 \uc2dc \uc601\ubb38\uc774\ub984\uc774 \ub4f1\ub85d\ub418\uc5b4 \uc788\uc5b4\uc57c\ud569\ub2c8\ub2e4. \uc601\ubb38\uc774\ub984\uc740 \uc885\ud569\uc815\ubcf4\uc2dc\uc2a4\ud15c\uc5d0\uc11c \ub4f1\ub85d \uac00\ub2a5\ud569\ub2c8\ub2e4.\uc774\uba54\uc77c\ub85c\ub294 \ubc1b\uc73c\uc2e4 \uc218 \uc5c6\uc2b5\ub2c8\ub2e4.
p1
sI2
V\uc218\uac15\uc815\uc815\uae30\uac04\uc5d0 \uc218\uac15\uc2e0\uccad\ud55c \uacfc\ubaa9 \uc0ad\uc81c\ud560 \uc218 \uc788\uc2b5\ub2c8\ub2e4. \uc218\uac15\uc815\uc815\uae30\uac04\uc740 3.6(\uc6d4) ~3.8(\uc218)\uae4c\uc9c0 \ud559\ub144\ubcc4\ub85c \uac00\ub2a5\ud558\uc2ed\ub2c8\ub2e4.
p2
sI3
V\ud5cc\ud608 \uc7a5\uc18c\ub294 \uc804\uad6d \ud5cc\ud608\uc758 \uc9d1\uc774\uba74 \uc5b4\ub514\ub4e0 \uac00\ub2a5\ud569\ub2c8\ub2e4. \uc790\uc138\ud55c \uc0ac\ud56d\uc740 \uc790\uc6d0\ubd09\uc0ac\uc13c\ud130(850-5553,5663)\ub85c \uc5f0\ub77d\ubc14\ub78d\ub2c8\ub2e4
p3
sI4
V\ub300\uad6c\ub300\ud559\uad50 \ud648\ud398\uc774\uc9c0 \uc811\uc18d, \ub300\ud559\uc0dd\ud65c, \ud559\uc0ac\uc548\ub0b4, \uc99d\uba85\ubc1c\uae09\uc744 \ud074\ub9ad\ud558\uc5ec \uc778\ud130\ub137\uc73c\ub85c \ubc1c\uae09\uc774 \uac00\ub2a5\ud569\ub2c8\ub2e4.
p4
sI5
V\uc678\ubd80\uc790\uaca9\uc99d\uc774\ub098 \ud1a0\uc775\uc810\uc218\ub85c \ud559\uc810\uc744 \ucde8\ub4dd\ud558\ub294 \uac83\uc740 \uc5c6\uc2b5\ub2c8\ub2e4. \uac10\uc0ac\ud569\ub2c8\ub2e4.
p5
sI6
V\uc218\uac15\uc815\uc815\uae30\uac04\uc5d0 \uc218\uac15\uc2e0\uccad\uc740 \uc77c\uc815\uc5d0 \ub530\ub77c \uc9c4\ud589\ub429\ub2c8\ub2e4. \ud559\uc0ac\uacf5\uc9c0 \uc77c\uc815\uc744 \ucc38\uace0\ud558\uc2dc\uace0 \uc218\uac15\uc2e0\uccad \ud558\uc2dc\uba74 \ub429\ub2c8\ub2e4. \uc218\uac15\uc2e0\uccad \uad00\ub828\ud558\uc5ec \ubb38\uc758\uc0ac\ud56d\uc774 \uc788\uc73c\uc2dc\uba74 (*053-850-5123) \ubb38\uc758\ubc14\ub78d\ub2c8\ub2e4. 
p6
sI7
V\uc18c\uc18d\ud559\ubd80 \ub610\ub294 \ud559\uacfc(\uc804\uacf5)\uc5d0 \ud3b8\uc131\ub41c \uc804\uacf5\ud544\uc218 \uad50\uacfc\ubaa9\uacfc \uba85\uce6d\uc774 \ub3d9\uc77c\ud55c \uad50\uacfc\ubaa9\uc740 \ud0c0 \ud559\ubd80 \ud559\uacfc(\uc804\uacf5)\uc5d0\uc11c \uc774\uc218\ud560 \uc218 \uc5c6\uc2b5\ub2c8\ub2e4. \uc218\uac15\uc2e0\uccad \uad00\ub828\ud558\uc5ec \ub2e4\ub978\ubb38\uc758\uc0ac\ud56d\uc774 \uc788\uc73c\uc2dc\uba74 (*053-850-5123) \ubb38\uc758\ubc14\ub78d\ub2c8\ub2e4.
p7
sI8
V\uc0ac\ud68c\ubd09\uc0ac\ub85c \uc778\uc815\ub418\uace0 \uc878\uc5c5\ud559\uc810\uc5d0 \ud3ec\ud568\ub429\ub2c8\ub2e4. \ud5cc\ud608\uc740 3\ud68c\uc5d0 1\ud559\uc810 \uc0ac\ud68c\ubd09\uc0ac 1\ud559\uc810 \uc785\ub2c8\ub2e4. \uac10\uc0ac\ud569\ub2c8\ub2e4
p8
sI9
V\uc218\uac15\uc815\uc815\uae30\uac04\uc5d0 \uc218\uac15\uc2e0\uccad \uac00\ub2a5\ud558\uba70, \uc815\uc815\uae30\uac04\uc740 3\uc6d46\uc77c~3\uc6d48\uc77c\uc785\ub2c8\ub2e4. 
p9
sI10
V\ud559\uc0ac\uacbd\uace0\ub294 \ud559\uc0dd\uc0dd\ud65c\uc0c1\ub2f4\uc13c\ud130\uc5d0\uc11c \ud559\uc5c5\uc0c1\ub2f4\uc744 \ubc1b\uc2b5\ub2c8\ub2e4. \ud559\uc0ac\uacbd\uace0 \uad00\ub828\ud558\uc5ec '\ud559\uc0ac\uc548\ub0b4-\uc218\uc5c5\uc815\ubcf4-\ud559\uc810\ucde8\ub4dd.\uc131\uc801-\ud559\uc0ac\uacbd\uace0' \ucc38\uace0\ubc14\ub78d\ub2c8\ub2e4. 
p10
sI11
V\uc2e0\uc785\uc0dd \uc218\uac15\uc2e0\uccad \uc2dc\uac04\uc740 9:00~17:00 \uc785\ub2c8\ub2e4. 
p11
sI12
V\uc0ad\uc81c\ud55c \uc218\uc5c5\uc758 \uacbd\uc6b0 \ucd9c\uc11d\ud558\uc9c0 \uc54a\uc73c\uc154\ub3c4 \ub429\ub2c8\ub2e4. 3.8(\uc218)\uae4c\uc9c0 \uc218\uac15 \ubcc0\uacbd\uae30\uac04\uc73c\ub85c 3.8(\uc218) \uc774\ud6c4\uc5d0 \ud655\uc778\uac00\ub2a5\ud558\uc2ed\ub2c8\ub2e4.
p12
sI13
V\uc0ac\ud68c\ubd09\uc0ac\ub85c \uc778\uc815\ub418\uace0 \uc878\uc5c5\ud559\uc810\uc5d0 \ud3ec\ud568\ub429\ub2c8\ub2e4. \ud5cc\ud608\uc740 3\ud68c\uc5d0 1\ud559\uc810 \uc0ac\ud68c\ubd09\uc0ac 1\ud559\uc810 \uc785\ub2c8\ub2e4.
p13
sI14
V\uc218\uac15\ud3ec\uae30 \uae30\uac04\uc740 3\uc6d4 20\uc77c ~ 22\uc77c \uae4c\uc9c0 \uc785\ub2c8\ub2e4.
p14
sI15
V\uc878\uc5c5\uc5f0\uae30 \uc2e0\uccad\uc790\ub294 \ubc18\ub4dc\uc2dc \ub9e4\ud559\uae30 \ucd5c\uc18c 1\ud559\uc810 \uc774\uc0c1\uc758 \uc218\uac15\uc2e0\uccad\uc744 \ud558\uc5ec\uc57c \ud558\uba70 \ubbf8\uc218\uac15\uc2e0\uccad\uc2dc \uc878\uc5c5\uc5f0\uae30\uc790\uaca9\uc774 \ubc15\ud0c8\ub418\uc5b4 \uc5f0\uae30\uae30\uac04\uc5d0 \uc0c1\uad00\uc5c6\uc774 2017\ub144 8\uc6d4 \uc878\uc5c5\ucc98\ub9ac \ub429\ub2c8\ub2e4. \uc878\uc5c5 \uc5f0\uae30\uad00\ub828 \uae30\ud0c0\ubb38\uc758\uc0ac\ud56d\uc740 (*053-850-5132) \ubb38\uc758\ubc14\ub78d\ub2c8\ub2e4. 
p15
sI16
V\ud559\uc810\uc73c\ub85c \uc778\uc815\ud574\uc8fc\ub294 \uc790\uaca9\uc99d\uc740 \uc5c6\uc2b5\ub2c8\ub2e4. 
p16
sI17
V\uc218\uc5c5\uc740 1\uc2dc\uac04 15\ubd84\uc774\uace0 \uc26c\ub294 \uc2dc\uac04\uc740 15\ubd84\uc785\ub2c8\ub2e4. \uac10\uc0ac\ud569\ub2c8\ub2e4.
p17
sI18
V\uc878\uc5c5\ud559\uc810\uc740 \uc885\ud569\uc815\ubcf4\uc2dc\uc2a4\ud15c-\ud559\uc801/\uc878\uc5c5-\uc878\uc5c5\uad00\ub9ac-\uc878\uc5c5\uc0ac\uc815\uc548\ub0b4 \uc5d0\uc11c \ud655\uc778 \uac00\ub2a5\ud558\uc2ed\ub2c8\ub2e4.\uac10\uc0ac\ud569\ub2c8\ub2e4. 
p18
sI19
V\uc9c0\uac01 \ucc98\ub9ac\uc5d0 \ub300\ud55c \uae30\ubcf8 \uc124\uc815 \uc2dc\uac04\uc740 20\ubd84 \uc785\ub2c8\ub2e4. 20\ubd84 \uc774\ud6c4\uc5d0\ub294 \uacb0\uc11d\uc73c\ub85c \ucc98\ub9ac\uac00 \ub429\ub2c8\ub2e4.
p19
sI20
V\uc218\uac15\ud3ec\uae30 \uae30\uac04\uc740 3\uc6d4 20\uc77c ~ 22\uc77c \uae4c\uc9c0 \uc785\ub2c8\ub2e4
p20
sI21
V\ud604\uc9c0\ud559\uae30\uc81c \ucc38\uc5ec \ud559\uc0dd\uc740 \uc0ac\uc804\uad50\uc721\ud504\ub85c\uadf8\ub7a8 \ucc38\uac00\ub294 \ubd88\uac00\ub2a5\ud558\ub098 \uad50\ud658\ud559\uc0dd\uc740 \uc9c0\uc6d0\ud560 \uc218 \uc788\uc2b5\ub2c8\ub2e4.
p21
sI22
V\ud604\uc7ac \ud559\uc810\ud3ec\uae30\uc81c\ub3c4\ub294 \ud3d0\uc9c0\ub418\uc5c8\uc73c\uba70, \uc7ac\uc218\uac15\uc744 \ud558\uc154\uc57c \ud569\ub2c8\ub2e4.
p22
sI23
V\uacc4\uc808\ud559\uae30 \uc2e0\uccad\uac00\ub2a5 \ud559\uc810\uc740 6\ud559\uc810\uc774\ub0b4 \uc785\ub2c8\ub2e4.
p23
sI24
V\uc0ac\ud68c\ubd09\uc0ac\ub294 \ud544\uc218 \uc0ac\ud56d\uc774 \uc544\ub2c8\uba70, \uc774\uc218\ud558\uc9c0 \ubabb\ud560 \uc2dc fail\ucc98\ub9ac\uac00 \ub418\ub098 \uc131\uc801\uc5d0\ub294 \uacf5\uc2dc\ub418\uc9c0 \uc54a\uc2b5\ub2c8\ub2e4.
p24
sI25
V3\uc6d48\uc77c \uc218\uc694\uc77c \uae4c\uc9c0 \uc218\uc5c5\uc815\uc815\uae30\uac04\uc774\ubbc0\ub85c \ucd9c\uc11d\uc5d0\ub294 \uc601\ud5a5\uc744 \ubbf8\uce58\uc9c0 \uc54a\uc9c0\ub9cc, \ubcd1\uc6d0 \uc9c4\ub2e8\uc11c\ub098 \uc9c4\ub8cc\ud655\uc778\uc99d\uc744 \uad50\uc218\ub2d8\uaed8 \uc81c\ucd9c\ud558\uc2dc\uba74 \ud655\uc2e4\ud558\uac8c \ucd9c\uc11d \uc778\uc815\uc774 \ub429\ub2c8\ub2e4.
p25
s.