(dp0
I1
V
p1
sI2
V\uc7a5\ud559\uc0dd\ucd94\ucc9c\uc11c \uc591\uc2dd\uc758 \uacbd\uc6b0 \ud574\ub2f9 \uacf5\uc9c0\uc0ac\ud56d\uc758 \ucca8\ubd80\ud30c\uc77c\uc744 \ud655\uc778\ud558\uc5ec \uc8fc\uc2dc\uae30 \ubc14\ub78d\ub2c8\ub2e4. \ucd94\ucc9c\uc11c \uc591\uc2dd \ud504\ub9b0\ud2b8 \ud6c4 \ud559\uacfc\uc9c0\ub3c4\uad50\uc218\ub2d8 \ub610\ub294 \ud559\uacfc\uc7a5 \uad50\uc218\ub2d8\uaed8 \ucd94\ucc9c \ubc1b\uc73c\uc2dc\uba74 \ub429\ub2c8\ub2e4. 
p2
sI3
V'\uc678\uad6d\uc5b4\ub2a5\ub825\uc6b0\uc218 \uc7a5\ud559\uae08'\uc758 \uacbd\uc6b0, \uacf5\uc778\ub41c \uc678\uad6d\uc5b4\uc131\uc801\uc73c\ub85c\ub9cc \uc218\ud61c\uac00 \uac00\ub2a5\ud569\ub2c8\ub2e4. \uc7a5\ud559\uae08 \uc218\ud61c\ub4f1\uae09\uacfc \uad00\ub828\ud558\uc5ec \uc678\uad6d\uc5b4\ub2a5\ub825\uc6b0\uc218 \uc7a5\ud559\uae08 \uacf5\uc9c0\uc0ac\ud56d\uc774 \uc5c5\ub85c\ub4dc \uc608\uc815\uc774\ub2c8 \ucc38\uace0\ud574\uc8fc\uc2dc\uae30 \ubc14\ub78d\ub2c8\ub2e4. 
p3
sI4
V\uad6d\uac00\uadfc\ub85c \uc2dc\uac04(09:00~18:00 ) \uc678\uc5d0 \uadfc\ub85c\ub97c \uc9c4\ud589\ud558\uc2dc\ub294 \uacbd\uc6b0\ub77c\uba74 \ubcd1\ud589\uac00\ub2a5 \ud569\ub2c8\ub2e4. \ud558\uc9c0\ub9cc \uad50\ub0b4 \uc544\ub974\ubc14\uc774\ud2b8\uac00 \uc544\ub2cc \uc678\ubd80 \uc544\ub974\ubc14\uc774\ud2b8 \uc911 4\ub300 \ubcf4\ud5d8\uc774 \uc801\uc6a9 \ub420 \uacbd\uc6b0, \ubcf4\ud5d8\uae08 \uc801\uc6a9\uacfc \uc870\uae30\ucde8\uc5c5 \uad00\ub828\uc73c\ub85c \uc778\ud574 \uad6d\uac00\uadfc\ub85c\uc7a5\ud559\uc0ac\uc5c5 \ucc38\uc5ec\uac00 \uc5b4\ub824\uc6b8 \uc218 \ub3c4 \uc788\uc2b5\ub2c8\ub2e4. 
p4
s.